target datalayout = "e-m:e-p270:32:32-p271:32:32-p272:64:64-i64:64-i128:128-f80:128-n8:16:32:64-S128"
target triple = "x86_64-pc-linux-gnu"

%struct.test_fixture = type { ptr, i32, ptr, ptr, ptr, ptr, i32 }

@libctx = internal global ptr null, align 8
@test_time_valid = internal global i64 0, align 8
@.str.14 = private unnamed_addr constant [31 x i8] c"../openssl/test/cmp_vfy_test.c\00", align 1
@.str.73 = private unnamed_addr constant [43 x i8] c"fixture = OPENSSL_zalloc(sizeof(*fixture))\00", align 1
@.str.74 = private unnamed_addr constant [50 x i8] c"fixture->cmp_ctx = OSSL_CMP_CTX_new(libctx, NULL)\00", align 1

; Function Attrs: nounwind uwtable
define internal void @tear_down(ptr noundef %0) #0 {
  %2 = alloca ptr, align 8
  store ptr %0, ptr %2, align 8, !tbaa !24
  %3 = load ptr, ptr %2, align 8, !tbaa !24
  %4 = getelementptr inbounds nuw %struct.test_fixture, ptr %3, i32 0, i32 3
  %5 = load ptr, ptr %4, align 8, !tbaa !31
  call void @OSSL_CMP_MSG_free(ptr noundef %5)
  %6 = load ptr, ptr %2, align 8, !tbaa !24
  %7 = getelementptr inbounds nuw %struct.test_fixture, ptr %6, i32 0, i32 2
  %8 = load ptr, ptr %7, align 8, !tbaa !32
  call void @OSSL_CMP_CTX_free(ptr noundef %8)
  %9 = load ptr, ptr %2, align 8, !tbaa !24
  call void @CRYPTO_free(ptr noundef %9, ptr noundef @.str.14, i32 noundef 47)
  ret void
}

; Function Attrs: nounwind uwtable
define internal ptr @set_up(ptr noundef %0) #0 {
  %2 = alloca ptr, align 8
  %3 = alloca ptr, align 8
  %4 = alloca ptr, align 8
  %5 = alloca ptr, align 8
  %6 = alloca i32, align 4
  store ptr %0, ptr %3, align 8, !tbaa !23
  call void @llvm.lifetime.start.p0(i64 8, ptr %4) #7
  call void @llvm.lifetime.start.p0(i64 8, ptr %5) #7
  %7 = call noalias ptr @CRYPTO_zalloc(i64 noundef 56, ptr noundef @.str.14, i32 noundef 57)
  store ptr %7, ptr %5, align 8, !tbaa !24
  %8 = call i32 @test_ptr(ptr noundef @.str.14, i32 noundef 57, ptr noundef @.str.73, ptr noundef %7)
  %9 = icmp ne i32 %8, 0
  br i1 %9, label %11, label %10

10:                                               ; preds = %1
  store ptr null, ptr %2, align 8
  store i32 1, ptr %6, align 4
  br label %47

11:                                               ; preds = %1
  %12 = call ptr @X509_STORE_new()
  store ptr %12, ptr %4, align 8, !tbaa !39
  %13 = load ptr, ptr %3, align 8, !tbaa !23
  %14 = load ptr, ptr %5, align 8, !tbaa !24
  %15 = getelementptr inbounds nuw %struct.test_fixture, ptr %14, i32 0, i32 0
  store ptr %13, ptr %15, align 8, !tbaa !41
  %16 = load ptr, ptr %4, align 8, !tbaa !39
  %17 = icmp eq ptr %16, null
  br i1 %17, label %38, label %18

18:                                               ; preds = %11
  %19 = load ptr, ptr @libctx, align 8, !tbaa !13
  %20 = call ptr @OSSL_CMP_CTX_new(ptr noundef %19, ptr noundef null)
  %21 = load ptr, ptr %5, align 8, !tbaa !24
  %22 = getelementptr inbounds nuw %struct.test_fixture, ptr %21, i32 0, i32 2
  store ptr %20, ptr %22, align 8, !tbaa !32
  %23 = call i32 @test_ptr(ptr noundef @.str.14, i32 noundef 63, ptr noundef @.str.74, ptr noundef %20)
  %24 = icmp ne i32 %23, 0
  br i1 %24, label %25, label %38

25:                                               ; preds = %18
  %26 = load ptr, ptr %5, align 8, !tbaa !24
  %27 = getelementptr inbounds nuw %struct.test_fixture, ptr %26, i32 0, i32 2
  %28 = load ptr, ptr %27, align 8, !tbaa !32
  %29 = load ptr, ptr %4, align 8, !tbaa !39
  %30 = call i32 @OSSL_CMP_CTX_set0_trustedStore(ptr noundef %28, ptr noundef %29)
  %31 = icmp ne i32 %30, 0
  br i1 %31, label %32, label %38

32:                                               ; preds = %25
  %33 = load ptr, ptr %5, align 8, !tbaa !24
  %34 = getelementptr inbounds nuw %struct.test_fixture, ptr %33, i32 0, i32 2
  %35 = load ptr, ptr %34, align 8, !tbaa !32
  %36 = call i32 @OSSL_CMP_CTX_set_log_cb(ptr noundef %35, ptr noundef @print_to_bio_out)
  %37 = icmp ne i32 %36, 0
  br i1 %37, label %41, label %38

38:                                               ; preds = %32, %25, %18, %11
  %39 = load ptr, ptr %5, align 8, !tbaa !24
  call void @tear_down(ptr noundef %39)
  %40 = load ptr, ptr %4, align 8, !tbaa !39
  call void @X509_STORE_free(ptr noundef %40)
  store ptr null, ptr %2, align 8
  store i32 1, ptr %6, align 4
  br label %47

41:                                               ; preds = %32
  %42 = load ptr, ptr %4, align 8, !tbaa !39
  %43 = call ptr @X509_STORE_get0_param(ptr noundef %42)
  %44 = load i64, ptr @test_time_valid, align 8, !tbaa !22
  call void @X509_VERIFY_PARAM_set_time(ptr noundef %43, i64 noundef %44)
  %45 = load ptr, ptr %4, align 8, !tbaa !39
  call void @X509_STORE_set_verify_cb(ptr noundef %45, ptr noundef @X509_STORE_CTX_print_verify_cb)
  %46 = load ptr, ptr %5, align 8, !tbaa !24
  store ptr %46, ptr %2, align 8
  store i32 1, ptr %6, align 4
  br label %47

47:                                               ; preds = %41, %38, %10
  call void @llvm.lifetime.end.p0(i64 8, ptr %5) #7
  call void @llvm.lifetime.end.p0(i64 8, ptr %4) #7
  %48 = load ptr, ptr %2, align 8
  ret ptr %48
}