; Function Attrs: nounwind uwtable
define internal fastcc noundef ptr @set_up(ptr noundef %0) unnamed_addr #0 {
  %2 = tail call noalias ptr @CRYPTO_zalloc(i64 noundef 56, ptr noundef nonnull @.str.14, i32 noundef 57) #7
  %3 = tail call i32 @test_ptr(ptr noundef nonnull @.str.14, i32 noundef 57, ptr noundef nonnull @.str.73, ptr noundef %2) #7
  %.not = icmp eq i32 %3, 0
  br i1 %.not, label %26, label %4

4:                                                ; preds = %1
  %5 = tail call ptr @X509_STORE_new() #7
  store ptr %0, ptr %2, align 8, !tbaa !40
  %6 = icmp eq ptr %5, null
  br i1 %6, label %18, label %7

7:                                                ; preds = %4
  %8 = load ptr, ptr @libctx, align 8, !tbaa !13
  %9 = tail call ptr @OSSL_CMP_CTX_new(ptr noundef %8, ptr noundef null) #7
  %10 = getelementptr inbounds nuw i8, ptr %2, i64 16
  store ptr %9, ptr %10, align 8, !tbaa !28
  %11 = tail call i32 @test_ptr(ptr noundef nonnull @.str.14, i32 noundef 63, ptr noundef nonnull @.str.74, ptr noundef %9) #7
  %.not14 = icmp eq i32 %11, 0
  br i1 %.not14, label %18, label %12

12:                                               ; preds = %7
  %13 = load ptr, ptr %10, align 8, !tbaa !28
  %14 = tail call i32 @OSSL_CMP_CTX_set0_trustedStore(ptr noundef %13, ptr noundef nonnull %5) #7
  %.not15 = icmp eq i32 %14, 0
  br i1 %.not15, label %18, label %15

15:                                               ; preds = %12
  %16 = load ptr, ptr %10, align 8, !tbaa !28
  %17 = tail call i32 @OSSL_CMP_CTX_set_log_cb(ptr noundef %16, ptr noundef nonnull @print_to_bio_out) #7
  %.not16 = icmp eq i32 %17, 0
  br i1 %.not16, label %18, label %23

18:                                               ; preds = %15, %12, %7, %4
  %19 = getelementptr inbounds nuw i8, ptr %2, i64 24
  %20 = load ptr, ptr %19, align 8, !tbaa !27
  tail call void @OSSL_CMP_MSG_free(ptr noundef %20) #7
  %21 = getelementptr inbounds nuw i8, ptr %2, i64 16
  %22 = load ptr, ptr %21, align 8, !tbaa !28
  tail call void @OSSL_CMP_CTX_free(ptr noundef %22) #7
  tail call void @CRYPTO_free(ptr noundef nonnull %2, ptr noundef nonnull @.str.14, i32 noundef 47) #7
  tail call void @X509_STORE_free(ptr noundef %5) #7
  br label %26

23:                                               ; preds = %15
  %24 = tail call ptr @X509_STORE_get0_param(ptr noundef nonnull %5) #7
  %25 = load i64, ptr @test_time_valid, align 8, !tbaa !22
  tail call void @X509_VERIFY_PARAM_set_time(ptr noundef %24, i64 noundef %25) #7
  tail call void @X509_STORE_set_verify_cb(ptr noundef nonnull %5, ptr noundef nonnull @X509_STORE_CTX_print_verify_cb) #7
  br label %26

26:                                               ; preds = %1, %23, %18
  %.0 = phi ptr [ null, %18 ], [ %2, %23 ], [ null, %1 ]
  ret ptr %.0
}